target datalayout = "e-m:e-p270:32:32-p271:32:32-p272:64:64-i64:64-i128:128-f80:128-n8:16:32:64-S128"
target triple = "x86_64-pc-linux-gnu"

%struct.ident_t = type { i32, i32, i32, i32, ptr }
%"class.std::vector.11" = type { %"struct.std::_Vector_base.12" }
%"struct.std::_Vector_base.12" = type { %"struct.std::_Vector_base<float, std::allocator<float>>::_Vector_impl" }
%"struct.std::_Vector_base<float, std::allocator<float>>::_Vector_impl" = type { %"struct.std::_Vector_base<float, std::allocator<float>>::_Vector_impl_data" }
%"struct.std::_Vector_base<float, std::allocator<float>>::_Vector_impl_data" = type { ptr, ptr, ptr }
%"struct.faiss::AdditiveQuantizer" = type <{ %"struct.faiss::Quantizer", i64, %"class.std::vector", %"class.std::vector.11", %"class.std::vector", i64, i64, i64, i8, i8, i8, [5 x i8], %"struct.faiss::IndexFlat1D", %"class.std::vector.11", i64, i32, float, float, [4 x i8] }>
%"struct.faiss::Quantizer" = type { ptr, i64, i64 }
%"class.std::vector" = type { %"struct.std::_Vector_base" }
%"struct.std::_Vector_base" = type { %"struct.std::_Vector_base<unsigned long, std::allocator<unsigned long>>::_Vector_impl" }
%"struct.std::_Vector_base<unsigned long, std::allocator<unsigned long>>::_Vector_impl" = type { %"struct.std::_Vector_base<unsigned long, std::allocator<unsigned long>>::_Vector_impl_data" }
%"struct.std::_Vector_base<unsigned long, std::allocator<unsigned long>>::_Vector_impl_data" = type { ptr, ptr, ptr }
%"struct.faiss::IndexFlat1D" = type { %"struct.faiss::IndexFlatL2", i8, %"class.std::vector.21" }
%"struct.faiss::IndexFlatL2" = type { %"struct.faiss::IndexFlat", %"class.std::vector.11" }
%"struct.faiss::IndexFlat" = type { %"struct.faiss::IndexFlatCodes" }
%"struct.faiss::IndexFlatCodes" = type { %"struct.faiss::Index.base", i64, %"class.std::vector.16" }
%"struct.faiss::Index.base" = type <{ ptr, i32, [4 x i8], i64, i8, i8, [2 x i8], i32, float }>
%"class.std::vector.16" = type { %"struct.std::_Vector_base.17" }
%"struct.std::_Vector_base.17" = type { %"struct.std::_Vector_base<unsigned char, std::allocator<unsigned char>>::_Vector_impl" }
%"struct.std::_Vector_base<unsigned char, std::allocator<unsigned char>>::_Vector_impl" = type { %"struct.std::_Vector_base<unsigned char, std::allocator<unsigned char>>::_Vector_impl_data" }
%"struct.std::_Vector_base<unsigned char, std::allocator<unsigned char>>::_Vector_impl_data" = type { ptr, ptr, ptr }
%"class.std::vector.21" = type { %"struct.std::_Vector_base.22" }
%"struct.std::_Vector_base.22" = type { %"struct.std::_Vector_base<long, std::allocator<long>>::_Vector_impl" }
%"struct.std::_Vector_base<long, std::allocator<long>>::_Vector_impl" = type { %"struct.std::_Vector_base<long, std::allocator<long>>::_Vector_impl_data" }
%"struct.std::_Vector_base<long, std::allocator<long>>::_Vector_impl_data" = type { ptr, ptr, ptr }
%"struct.std::_Vector_base.27" = type { %"struct.std::_Vector_base<int, std::allocator<int>>::_Vector_impl" }
%"struct.std::_Vector_base<int, std::allocator<int>>::_Vector_impl" = type { %"struct.std::_Vector_base<int, std::allocator<int>>::_Vector_impl_data" }
%"struct.std::_Vector_base<int, std::allocator<int>>::_Vector_impl_data" = type { ptr, ptr, ptr }

@1 = private unnamed_addr constant %struct.ident_t { i32 0, i32 514, i32 0, i32 22, ptr @0 }, align 8
@.gomp_critical_user_.reduction.var = common global [8 x i32] zeroinitializer, align 8
@3 = private unnamed_addr constant %struct.ident_t { i32 0, i32 18, i32 0, i32 22, ptr @0 }, align 8

; Function Attrs: mustprogress nounwind uwtable
define linkonce_odr noundef ptr @_ZNKSt6vectorIiSaIiEE11_M_data_ptrIiEEPT_S4_(ptr noundef nonnull align 8 dereferenceable(24) %0, ptr noundef %1) #0 comdat align 2 {
  %3 = alloca ptr, align 8
  %4 = alloca ptr, align 8
  store ptr %0, ptr %3, align 8
  store ptr %1, ptr %4, align 8
  %5 = load ptr, ptr %4, align 8
  ret ptr %5
}

; Function Attrs: mustprogress nounwind uwtable
define linkonce_odr noundef ptr @_ZNSt6vectorIiSaIiEE4dataEv(ptr noundef nonnull align 8 dereferenceable(24) %0) #0 comdat align 2 {
  %2 = alloca ptr, align 8
  store ptr %0, ptr %2, align 8
  %3 = load ptr, ptr %2, align 8
  %4 = getelementptr inbounds %"struct.std::_Vector_base.27", ptr %3, i32 0, i32 0
  %5 = getelementptr inbounds %"struct.std::_Vector_base<int, std::allocator<int>>::_Vector_impl_data", ptr %4, i32 0, i32 0
  %6 = load ptr, ptr %5, align 8
  %7 = call noundef ptr @_ZNKSt6vectorIiSaIiEE11_M_data_ptrIiEEPT_S4_(ptr noundef nonnull align 8 dereferenceable(24) %3, ptr noundef %6) #4
  ret ptr %7
}

; Function Attrs: mustprogress nounwind uwtable
define linkonce_odr noundef nonnull align 4 dereferenceable(4) ptr @_ZNSt6vectorIfSaIfEEixEm(ptr noundef nonnull align 8 dereferenceable(24) %0, i64 noundef %1) #0 comdat align 2 {
  %3 = alloca ptr, align 8
  %4 = alloca i64, align 8
  store ptr %0, ptr %3, align 8
  store i64 %1, ptr %4, align 8
  %5 = load ptr, ptr %3, align 8
  %6 = getelementptr inbounds %"struct.std::_Vector_base.12", ptr %5, i32 0, i32 0
  %7 = getelementptr inbounds %"struct.std::_Vector_base<float, std::allocator<float>>::_Vector_impl_data", ptr %6, i32 0, i32 0
  %8 = load ptr, ptr %7, align 8
  %9 = load i64, ptr %4, align 8
  %10 = getelementptr inbounds float, ptr %8, i64 %9
  ret ptr %10
}

; Function Attrs: norecurse nounwind uwtable
define internal void @_ZNK5faiss20LocalSearchQuantizer15icm_encode_implEPiPKfS3_RSt23mersenne_twister_engineImLm32ELm624ELm397ELm31ELm2567483615ELm11ELm4294967295ELm7ELm2636928640ELm15ELm4022730752ELm18ELm1812433253EEmmb.omp_outlined(ptr noalias noundef %0, ptr noalias noundef %1, ptr noundef nonnull align 8 dereferenceable(8) %2, ptr noundef nonnull align 8 dereferenceable(24) %3, ptr noundef nonnull align 8 dereferenceable(24) %4, ptr noundef nonnull align 8 dereferenceable(24) %5, ptr noundef %6, ptr noundef nonnull align 8 dereferenceable(8) %7, ptr noundef nonnull align 8 dereferenceable(8) %8, ptr noundef nonnull align 4 dereferenceable(4) %9) #11 {
  %11 = alloca ptr, align 8
  %12 = alloca ptr, align 8
  %13 = alloca ptr, align 8
  %14 = alloca ptr, align 8
  %15 = alloca ptr, align 8
  %16 = alloca ptr, align 8
  %17 = alloca ptr, align 8
  %18 = alloca ptr, align 8
  %19 = alloca ptr, align 8
  %20 = alloca ptr, align 8
  %21 = alloca i64, align 8
  %22 = alloca i64, align 8
  %23 = alloca i64, align 8
  %24 = alloca i64, align 8
  %25 = alloca i64, align 8
  %26 = alloca i64, align 8
  %27 = alloca i64, align 8
  %28 = alloca i32, align 4
  %29 = alloca i64, align 8
  %30 = alloca float, align 4
  %31 = alloca i64, align 8
  %32 = alloca [2 x ptr], align 8
  store ptr %0, ptr %11, align 8
  store ptr %1, ptr %12, align 8
  store ptr %2, ptr %13, align 8
  store ptr %3, ptr %14, align 8
  store ptr %4, ptr %15, align 8
  store ptr %5, ptr %16, align 8
  store ptr %6, ptr %17, align 8
  store ptr %7, ptr %18, align 8
  store ptr %8, ptr %19, align 8
  store ptr %9, ptr %20, align 8
  %33 = load ptr, ptr %13, align 8
  %34 = load ptr, ptr %14, align 8
  %35 = load ptr, ptr %15, align 8
  %36 = load ptr, ptr %16, align 8
  %37 = load ptr, ptr %17, align 8
  %38 = load ptr, ptr %18, align 8
  %39 = load ptr, ptr %19, align 8
  %40 = load ptr, ptr %20, align 8
  %41 = load i64, ptr %33, align 8
  store i64 %41, ptr %22, align 8
  %42 = load i64, ptr %22, align 8
  %43 = sub i64 %42, 0
  %44 = udiv i64 %43, 1
  %45 = sub i64 %44, 1
  store i64 %45, ptr %23, align 8
  store i64 0, ptr %24, align 8
  %46 = load i64, ptr %22, align 8
  %47 = icmp ult i64 0, %46
  br i1 %47, label %48, label %133

48:                                               ; preds = %10
  store i64 0, ptr %25, align 8
  %49 = load i64, ptr %23, align 8
  store i64 %49, ptr %26, align 8
  store i64 1, ptr %27, align 8
  store i32 0, ptr %28, align 4
  store i64 0, ptr %29, align 8
  store float 0.000000e+00, ptr %30, align 4
  %50 = load ptr, ptr %11, align 8
  %51 = load i32, ptr %50, align 4
  call void @__kmpc_for_static_init_8u(ptr @1, i32 %51, i32 34, ptr %28, ptr %25, ptr %26, ptr %27, i64 1, i64 1)
  %52 = load i64, ptr %26, align 8
  %53 = load i64, ptr %23, align 8
  %54 = icmp ugt i64 %52, %53
  br i1 %54, label %55, label %57

55:                                               ; preds = %48
  %56 = load i64, ptr %23, align 8
  br label %59

57:                                               ; preds = %48
  %58 = load i64, ptr %26, align 8
  br label %59

59:                                               ; preds = %57, %55
  %60 = phi i64 [ %56, %55 ], [ %58, %57 ]
  store i64 %60, ptr %26, align 8
  %61 = load i64, ptr %25, align 8
  store i64 %61, ptr %21, align 8
  br label %62

62:                                               ; preds = %108, %59
  %63 = load i64, ptr %21, align 8
  %64 = load i64, ptr %26, align 8
  %65 = add i64 %64, 1
  %66 = icmp ult i64 %63, %65
  br i1 %66, label %67, label %111

67:                                               ; preds = %62
  %68 = load i64, ptr %21, align 8
  %69 = mul i64 %68, 1
  %70 = add i64 0, %69
  store i64 %70, ptr %31, align 8
  %71 = load i64, ptr %31, align 8
  %72 = call noundef nonnull align 4 dereferenceable(4) ptr @_ZNSt6vectorIfSaIfEEixEm(ptr noundef nonnull align 8 dereferenceable(24) %34, i64 noundef %71) #4
  %73 = load float, ptr %72, align 4
  %74 = load i64, ptr %31, align 8
  %75 = call noundef nonnull align 4 dereferenceable(4) ptr @_ZNSt6vectorIfSaIfEEixEm(ptr noundef nonnull align 8 dereferenceable(24) %35, i64 noundef %74) #4
  %76 = load float, ptr %75, align 4
  %77 = fcmp olt float %73, %76
  br i1 %77, label %78, label %101

78:                                               ; preds = %67
  %79 = load i64, ptr %31, align 8
  %80 = call noundef nonnull align 4 dereferenceable(4) ptr @_ZNSt6vectorIfSaIfEEixEm(ptr noundef nonnull align 8 dereferenceable(24) %34, i64 noundef %79) #4
  %81 = load float, ptr %80, align 4
  %82 = load i64, ptr %31, align 8
  %83 = call noundef nonnull align 4 dereferenceable(4) ptr @_ZNSt6vectorIfSaIfEEixEm(ptr noundef nonnull align 8 dereferenceable(24) %35, i64 noundef %82) #4
  store float %81, ptr %83, align 4
  %84 = call noundef ptr @_ZNSt6vectorIiSaIiEE4dataEv(ptr noundef nonnull align 8 dereferenceable(24) %36) #4
  %85 = load i64, ptr %31, align 8
  %86 = getelementptr inbounds %"struct.faiss::AdditiveQuantizer", ptr %37, i32 0, i32 1
  %87 = load i64, ptr %86, align 8
  %88 = mul i64 %85, %87
  %89 = getelementptr inbounds i32, ptr %84, i64 %88
  %90 = load ptr, ptr %38, align 8
  %91 = load i64, ptr %31, align 8
  %92 = getelementptr inbounds %"struct.faiss::AdditiveQuantizer", ptr %37, i32 0, i32 1
  %93 = load i64, ptr %92, align 8
  %94 = mul i64 %91, %93
  %95 = getelementptr inbounds i32, ptr %90, i64 %94
  %96 = getelementptr inbounds %"struct.faiss::AdditiveQuantizer", ptr %37, i32 0, i32 1
  %97 = load i64, ptr %96, align 8
  %98 = mul i64 4, %97
  call void @llvm.memcpy.p0.p0.i64(ptr align 4 %89, ptr align 4 %95, i64 %98, i1 false)
  %99 = load i64, ptr %29, align 8
  %100 = add i64 %99, 1
  store i64 %100, ptr %29, align 8
  br label %101

101:                                              ; preds = %78, %67
  %102 = load i64, ptr %31, align 8
  %103 = call noundef nonnull align 4 dereferenceable(4) ptr @_ZNSt6vectorIfSaIfEEixEm(ptr noundef nonnull align 8 dereferenceable(24) %35, i64 noundef %102) #4
  %104 = load float, ptr %103, align 4
  %105 = load float, ptr %30, align 4
  %106 = fadd float %105, %104
  store float %106, ptr %30, align 4
  br label %107

107:                                              ; preds = %101
  br label %108

108:                                              ; preds = %107
  %109 = load i64, ptr %21, align 8
  %110 = add i64 %109, 1
  store i64 %110, ptr %21, align 8
  br label %62

111:                                              ; preds = %62
  br label %112

112:                                              ; preds = %111
  %113 = load ptr, ptr %11, align 8
  %114 = load i32, ptr %113, align 4
  call void @__kmpc_for_static_fini(ptr @1, i32 %114)
  %115 = getelementptr inbounds [2 x ptr], ptr %32, i64 0, i64 0
  store ptr %29, ptr %115, align 8
  %116 = getelementptr inbounds [2 x ptr], ptr %32, i64 0, i64 1
  store ptr %30, ptr %116, align 8
  %117 = load ptr, ptr %11, align 8
  %118 = load i32, ptr %117, align 4
  %119 = call i32 @__kmpc_reduce_nowait(ptr @3, i32 %118, i32 2, i64 16, ptr %32, ptr @_ZNK5faiss20LocalSearchQuantizer15icm_encode_implEPiPKfS3_RSt23mersenne_twister_engineImLm32ELm624ELm397ELm31ELm2567483615ELm11ELm4294967295ELm7ELm2636928640ELm15ELm4022730752ELm18ELm1812433253EEmmb.omp_outlined.omp.reduction.reduction_func, ptr @.gomp_critical_user_.reduction.var)
  switch i32 %119, label %132 [
    i32 1, label %120
    i32 2, label %127
  ]

120:                                              ; preds = %112
  %121 = load i64, ptr %39, align 8
  %122 = load i64, ptr %29, align 8
  %123 = add i64 %121, %122
  store i64 %123, ptr %39, align 8
  %124 = load float, ptr %40, align 4
  %125 = load float, ptr %30, align 4
  %126 = fadd float %124, %125
  store float %126, ptr %40, align 4
  call void @__kmpc_end_reduce_nowait(ptr @3, i32 %118, ptr @.gomp_critical_user_.reduction.var)
  br label %132

127:                                              ; preds = %112
  %128 = load i64, ptr %29, align 8
  %129 = atomicrmw add ptr %39, i64 %128 monotonic, align 8
  %130 = load float, ptr %30, align 4
  %131 = atomicrmw fadd ptr %40, float %130 monotonic, align 4
  br label %132

132:                                              ; preds = %127, %120, %112
  br label %133

133:                                              ; preds = %132, %10
  ret void
}