; Function Attrs: norecurse nounwind uwtable
define internal void @_ZNK5faiss20LocalSearchQuantizer15icm_encode_implEPiPKfS3_RSt23mersenne_twister_engineImLm32ELm624ELm397ELm31ELm2567483615ELm11ELm4294967295ELm7ELm2636928640ELm15ELm4022730752ELm18ELm1812433253EEmmb.omp_outlined(ptr noalias nocapture noundef readonly %0, ptr noalias nocapture readnone %1, ptr nocapture noundef nonnull readonly align 8 dereferenceable(8) %2, ptr nocapture noundef nonnull readonly align 8 dereferenceable(24) %3, ptr nocapture noundef nonnull readonly align 8 dereferenceable(24) %4, ptr nocapture noundef nonnull readonly align 8 dereferenceable(24) %5, ptr nocapture noundef readonly %6, ptr nocapture noundef nonnull readonly align 8 dereferenceable(8) %7, ptr nocapture noundef nonnull align 8 dereferenceable(8) %8, ptr nocapture noundef nonnull align 4 dereferenceable(4) %9) #11 {
  %11 = alloca i64, align 8
  %12 = alloca i64, align 8
  %13 = alloca i64, align 8
  %14 = alloca i32, align 4
  %15 = alloca i64, align 8
  %16 = alloca float, align 4
  %17 = alloca [2 x ptr], align 8
  %18 = load i64, ptr %2, align 8
  %.not = icmp eq i64 %18, 0
  br i1 %.not, label %70, label %19

19:                                               ; preds = %10
  %20 = add i64 %18, -1
  store i64 0, ptr %11, align 8
  store i64 %20, ptr %12, align 8
  store i64 1, ptr %13, align 8
  store i32 0, ptr %14, align 4
  store i64 0, ptr %15, align 8
  store float 0.000000e+00, ptr %16, align 4
  %21 = load i32, ptr %0, align 4
  call void @__kmpc_for_static_init_8u(ptr nonnull @1, i32 %21, i32 34, ptr nonnull %14, ptr nonnull %11, ptr nonnull %12, ptr nonnull %13, i64 1, i64 1)
  %22 = load i64, ptr %12, align 8
  %23 = call i64 @llvm.umin.i64(i64 %22, i64 %20)
  store i64 %23, ptr %12, align 8
  %24 = load i64, ptr %11, align 8
  %.not30 = icmp ugt i64 %24, %23
  br i1 %.not30, label %._crit_edge, label %.lr.ph

.lr.ph:                                           ; preds = %19
  %25 = getelementptr inbounds i8, ptr %6, i64 24
  %.pre = load ptr, ptr %4, align 8
  br label %26

26:                                               ; preds = %.lr.ph, %46
  %27 = phi i64 [ %23, %.lr.ph ], [ %48, %46 ]
  %28 = phi float [ 0.000000e+00, %.lr.ph ], [ %52, %46 ]
  %29 = phi ptr [ %.pre, %.lr.ph ], [ %50, %46 ]
  %30 = phi i64 [ 0, %.lr.ph ], [ %51, %46 ]
  %.025 = phi i64 [ %24, %.lr.ph ], [ %53, %46 ]
  %31 = load ptr, ptr %3, align 8
  %32 = getelementptr inbounds float, ptr %31, i64 %.025
  %33 = load float, ptr %32, align 4
  %34 = getelementptr inbounds float, ptr %29, i64 %.025
  %35 = load float, ptr %34, align 4
  %36 = fcmp olt float %33, %35
  br i1 %36, label %37, label %46

37:                                               ; preds = %26
  store float %33, ptr %34, align 4
  %38 = load ptr, ptr %5, align 8
  %39 = load i64, ptr %25, align 8
  %40 = mul i64 %39, %.025
  %41 = getelementptr inbounds i32, ptr %38, i64 %40
  %42 = load ptr, ptr %7, align 8
  %43 = getelementptr inbounds i32, ptr %42, i64 %40
  %44 = shl i64 %39, 2
  call void @llvm.memcpy.p0.p0.i64(ptr align 4 %41, ptr align 4 %43, i64 %44, i1 false)
  %45 = add i64 %30, 1
  store i64 %45, ptr %15, align 8
  %.pre26 = load ptr, ptr %4, align 8
  %.pre27 = load float, ptr %16, align 4
  %.pre28 = load i64, ptr %12, align 8
  %.phi.trans.insert = getelementptr inbounds float, ptr %.pre26, i64 %.025
  %.pre29 = load float, ptr %.phi.trans.insert, align 4
  br label %46

46:                                               ; preds = %37, %26
  %47 = phi float [ %.pre29, %37 ], [ %35, %26 ]
  %48 = phi i64 [ %.pre28, %37 ], [ %27, %26 ]
  %49 = phi float [ %.pre27, %37 ], [ %28, %26 ]
  %50 = phi ptr [ %.pre26, %37 ], [ %29, %26 ]
  %51 = phi i64 [ %45, %37 ], [ %30, %26 ]
  %52 = fadd float %47, %49
  store float %52, ptr %16, align 4
  %53 = add nuw i64 %.025, 1
  %54 = add i64 %48, 1
  %55 = icmp ult i64 %53, %54
  br i1 %55, label %26, label %._crit_edge

._crit_edge:                                      ; preds = %46, %19
  call void @__kmpc_for_static_fini(ptr nonnull @1, i32 %21)
  store ptr %15, ptr %17, align 8
  %56 = getelementptr inbounds i8, ptr %17, i64 8
  store ptr %16, ptr %56, align 8
  %57 = call i32 @__kmpc_reduce_nowait(ptr nonnull @3, i32 %21, i32 2, i64 16, ptr nonnull %17, ptr nonnull @_ZNK5faiss20LocalSearchQuantizer15icm_encode_implEPiPKfS3_RSt23mersenne_twister_engineImLm32ELm624ELm397ELm31ELm2567483615ELm11ELm4294967295ELm7ELm2636928640ELm15ELm4022730752ELm18ELm1812433253EEmmb.omp_outlined.omp.reduction.reduction_func, ptr nonnull @.gomp_critical_user_.reduction.var)
  switch i32 %57, label %70 [
    i32 1, label %58
    i32 2, label %65
  ]

58:                                               ; preds = %._crit_edge
  %59 = load i64, ptr %8, align 8
  %60 = load i64, ptr %15, align 8
  %61 = add i64 %60, %59
  store i64 %61, ptr %8, align 8
  %62 = load float, ptr %9, align 4
  %63 = load float, ptr %16, align 4
  %64 = fadd float %62, %63
  store float %64, ptr %9, align 4
  call void @__kmpc_end_reduce_nowait(ptr nonnull @3, i32 %21, ptr nonnull @.gomp_critical_user_.reduction.var)
  br label %70

65:                                               ; preds = %._crit_edge
  %66 = load i64, ptr %15, align 8
  %67 = atomicrmw add ptr %8, i64 %66 monotonic, align 8
  %68 = load float, ptr %16, align 4
  %69 = atomicrmw fadd ptr %9, float %68 monotonic, align 4
  br label %70

70:                                               ; preds = %._crit_edge, %58, %65, %10
  ret void
}